-----BEGIN RSA PRIVATE KEY-----
MIICXQIBAAKBgQCw18B3LnpHup4g3ItwflJiFEdTCJ6H5K0iv+AWH1VIaJLSEEur
Dpw7JlrldCKd0FwBEFGJ9cQPgOhSyMWnYJZ9EXgWTMMcgJr9H9SstS1UDMd348Qb
gPIzNW0khGT1uzZ8g/AFa7Vb88TRvZn9sevTx76KTOscagHSjBBMVmjckQIDAQAB
AoGBAIq4Y8jZ06AKutoKRvNylAtN3vk6jKkK7+mPXCfeYlbPeUSA9ep0Joebube+
Vx02gcVv2JaBDFAhDZ1K0wlOEh0wuIfSjlo20myErNL2vXwfWiQYqdF78/WA9plR
Axf7LE9RhLQIBFI8E0aHxg5mGrHHphznt4jj9F1jsPlh/hQBAkEA5tEXqOgRY+Lx
HIBy8m3nKI7swVnsIzsVBN/PXCC7RjHEx8AMmeoxi8+Kau03uieTQCZHZApffgma
thaP8Rn8UQJBAMQjHssaw7KkzH3m5hHNhL1ti35zE/bNnSMIIUapD9CZH9xlU498
zeRJvaULtHanN1codHpqpaEftIgTooQ8DEECQDJ0ho1/nT2OgFJQqc/gwmUVSR/C
/mF9Ks0T94oWBZoEixV3H8oNbaM4TPOuwz3IJOIi+/wcYF92zgD70Z9MpOECQCBz
WxXpgLVe1MKD4E7TvQGGTU0HhycPT89K+g5xzD8MBpx1W0TjNkFt/eV/sUTsV5ih
Bdx3Jp4o27qj3QCZ2sECQQDjWDUdaCO3wE06C7m0F8LIhyIfvQERwuWNRC85MtBr
t0Z7BvfvoQQzX4FLU152qbKgFcnnl+XYNTUo+032NyoT
-----END RSA PRIVATE KEY-----
Certificate:
    Data:
        Version: 3 (0x2)
        Serial Number: 2 (0x2)
    Signature Algorithm: sha1WithRSAEncryption
        Issuer: C=KR, CN=gilgil
        Validity
            Not Before: Mar  1 00:00:00 2014 GMT
            Not After : Feb 27 00:00:00 2024 GMT
        Subject: C=KR, CN=test.com
        Subject Public Key Info:
            Public Key Algorithm: rsaEncryption
                Public-Key: (1024 bit)
                Modulus:
                    00:b0:d7:c0:77:2e:7a:47:ba:9e:20:dc:8b:70:7e:
                    52:62:14:47:53:08:9e:87:e4:ad:22:bf:e0:16:1f:
                    55:48:68:92:d2:10:4b:ab:0e:9c:3b:26:5a:e5:74:
                    22:9d:d0:5c:01:10:51:89:f5:c4:0f:80:e8:52:c8:
                    c5:a7:60:96:7d:11:78:16:4c:c3:1c:80:9a:fd:1f:
                    d4:ac:b5:2d:54:0c:c7:77:e3:c4:1b:80:f2:33:35:
                    6d:24:84:64:f5:bb:36:7c:83:f0:05:6b:b5:5b:f3:
                    c4:d1:bd:99:fd:b1:eb:d3:c7:be:8a:4c:eb:1c:6a:
                    01:d2:8c:10:4c:56:68:dc:91
                Exponent: 65537 (0x10001)
        X509v3 extensions:
            X509v3 Basic Constraints: 
                CA:FALSE
            Netscape Comment: 
                OpenSSL Generated Certificate
            X509v3 Subject Key Identifier: 
                6B:98:5E:43:22:0D:90:50:5F:5D:69:9C:0D:FC:A7:D3:25:E0:7D:94
            X509v3 Authority Key Identifier: 
                DirName:/C=KR/CN=gilgil
                serial:BC:FE:EF:E9:4A:BC:63:F0

    Signature Algorithm: sha1WithRSAEncryption
         95:be:7b:cd:2a:ca:29:d9:c2:4c:b7:16:6a:16:45:e8:47:52:
         ef:70:cb:03:69:0e:b4:3d:f6:e1:92:56:18:2c:f6:8c:9c:3a:
         5b:34:8f:95:f7:0e:4c:ed:99:56:46:32:1f:ca:38:c6:ce:1a:
         26:68:68:ec:1b:41:ec:7d:bf:99:04:bb:57:a4:0b:1a:4b:df:
         22:2d:93:b8:59:35:ec:01:d5:52:3b:ef:ae:00:c9:d1:7c:20:
         7c:20:8a:02:95:8b:3e:5a:88:3f:e2:c1:28:b9:71:f5:5d:11:
         81:60:92:9b:95:9c:0f:1f:ac:67:d5:f6:00:1d:cf:df:64:b0:
         60:ba
-----BEGIN CERTIFICATE-----
MIICTjCCAbegAwIBAgIBAjANBgkqhkiG9w0BAQUFADAeMQswCQYDVQQGEwJLUjEP
MA0GA1UEAwwGZ2lsZ2lsMCIYDzIwMTQwMzAxMDAwMDAwWhgPMjAyNDAyMjcwMDAw
MDBaMCAxCzAJBgNVBAYTAktSMREwDwYDVQQDDAh0ZXN0LmNvbTCBnzANBgkqhkiG
9w0BAQEFAAOBjQAwgYkCgYEAsNfAdy56R7qeINyLcH5SYhRHUwieh+StIr/gFh9V
SGiS0hBLqw6cOyZa5XQindBcARBRifXED4DoUsjFp2CWfRF4FkzDHICa/R/UrLUt
VAzHd+PEG4DyMzVtJIRk9bs2fIPwBWu1W/PE0b2Z/bHr08e+ikzrHGoB0owQTFZo
3JECAwEAAaOBlTCBkjAJBgNVHRMEAjAAMCwGCWCGSAGG+EIBDQQfFh1PcGVuU1NM
IEdlbmVyYXRlZCBDZXJ0aWZpY2F0ZTAdBgNVHQ4EFgQUa5heQyINkFBfXWmcDfyn
0yXgfZQwOAYDVR0jBDEwL6EipCAwHjELMAkGA1UEBhMCS1IxDzANBgNVBAMMBmdp
bGdpbIIJALz+7+lKvGPwMA0GCSqGSIb3DQEBBQUAA4GBAJW+e80qyinZwky3FmoW
RehHUu9wywNpDrQ99uGSVhgs9oycOls0j5X3DkztmVZGMh/KOMbOGiZoaOwbQex9
v5kEu1ekCxpL3yItk7hZNewB1VI7764AydF8IHwgigKViz5aiD/iwSi5cfVdEYFg
kpuVnA8frGfV9gAdz99ksGC6
-----END CERTIFICATE-----
